target datalayout = "e-m:e-p270:32:32-p271:32:32-p272:64:64-i64:64-i128:128-f80:128-n8:16:32:64-S128"
target triple = "x86_64-pc-linux-gnu"

%struct.dv_vlc_pair = type { i32, i32 }

@ff_dv_vlc_len = external constant [409 x i8], align 16
@ff_dv_vlc_run = external constant [409 x i8], align 16
@dv_vlc_map = internal global [64 x [512 x %struct.dv_vlc_pair]] zeroinitializer, align 16
@ff_dv_vlc_level = external constant [409 x i8], align 16

; Function Attrs: cold nounwind optsize uwtable
define internal void @dv_vlc_map_tableinit() #0 {
  %1 = alloca i32, align 4
  %2 = alloca i32, align 4
  %3 = alloca i32, align 4
  %4 = alloca i32, align 4
  %5 = alloca i32, align 4
  %6 = alloca i32, align 4
  call void @llvm.lifetime.start.p0(i64 4, ptr %1) #9
  store i32 0, ptr %1, align 4, !tbaa !44
  call void @llvm.lifetime.start.p0(i64 4, ptr %2) #9
  call void @llvm.lifetime.start.p0(i64 4, ptr %3) #9
  call void @llvm.lifetime.start.p0(i64 4, ptr %4) #9
  store i32 0, ptr %4, align 4, !tbaa !44
  br label %7

7:                                                ; preds = %107, %0
  %8 = load i32, ptr %4, align 4, !tbaa !44
  %9 = icmp slt i32 %8, 409
  br i1 %9, label %11, label %10

10:                                               ; preds = %7
  store i32 2, ptr %5, align 4
  call void @llvm.lifetime.end.p0(i64 4, ptr %4) #9
  br label %110

11:                                               ; preds = %7
  call void @llvm.lifetime.start.p0(i64 4, ptr %6) #9
  %12 = load i32, ptr %1, align 4, !tbaa !44
  %13 = load i32, ptr %4, align 4, !tbaa !44
  %14 = sext i32 %13 to i64
  %15 = getelementptr inbounds [409 x i8], ptr @ff_dv_vlc_len, i64 0, i64 %14
  %16 = load i8, ptr %15, align 1, !tbaa !66
  %17 = zext i8 %16 to i32
  %18 = sub nsw i32 32, %17
  %19 = lshr i32 %12, %18
  store i32 %19, ptr %6, align 4, !tbaa !44
  %20 = load i32, ptr %4, align 4, !tbaa !44
  %21 = sext i32 %20 to i64
  %22 = getelementptr inbounds [409 x i8], ptr @ff_dv_vlc_len, i64 0, i64 %21
  %23 = load i8, ptr %22, align 1, !tbaa !66
  %24 = zext i8 %23 to i32
  %25 = sub nsw i32 32, %24
  %26 = shl i32 1, %25
  %27 = load i32, ptr %1, align 4, !tbaa !44
  %28 = add i32 %27, %26
  store i32 %28, ptr %1, align 4, !tbaa !44
  %29 = load i32, ptr %4, align 4, !tbaa !44
  %30 = sext i32 %29 to i64
  %31 = getelementptr inbounds [409 x i8], ptr @ff_dv_vlc_run, i64 0, i64 %30
  %32 = load i8, ptr %31, align 1, !tbaa !66
  %33 = zext i8 %32 to i32
  %34 = icmp sge i32 %33, 64
  br i1 %34, label %35, label %36

35:                                               ; preds = %11
  store i32 4, ptr %5, align 4
  br label %104

36:                                               ; preds = %11
  %37 = load i32, ptr %4, align 4, !tbaa !44
  %38 = sext i32 %37 to i64
  %39 = getelementptr inbounds [409 x i8], ptr @ff_dv_vlc_run, i64 0, i64 %38
  %40 = load i8, ptr %39, align 1, !tbaa !66
  %41 = zext i8 %40 to i64
  %42 = getelementptr inbounds nuw [64 x [512 x %struct.dv_vlc_pair]], ptr @dv_vlc_map, i64 0, i64 %41
  %43 = load i32, ptr %4, align 4, !tbaa !44
  %44 = sext i32 %43 to i64
  %45 = getelementptr inbounds [409 x i8], ptr @ff_dv_vlc_level, i64 0, i64 %44
  %46 = load i8, ptr %45, align 1, !tbaa !66
  %47 = zext i8 %46 to i64
  %48 = getelementptr inbounds nuw [512 x %struct.dv_vlc_pair], ptr %42, i64 0, i64 %47
  %49 = getelementptr inbounds nuw %struct.dv_vlc_pair, ptr %48, i32 0, i32 1
  %50 = load i32, ptr %49, align 4, !tbaa !67
  %51 = icmp ne i32 %50, 0
  br i1 %51, label %52, label %53

52:                                               ; preds = %36
  store i32 4, ptr %5, align 4
  br label %104

53:                                               ; preds = %36
  %54 = load i32, ptr %6, align 4, !tbaa !44
  %55 = load i32, ptr %4, align 4, !tbaa !44
  %56 = sext i32 %55 to i64
  %57 = getelementptr inbounds [409 x i8], ptr @ff_dv_vlc_level, i64 0, i64 %56
  %58 = load i8, ptr %57, align 1, !tbaa !66
  %59 = icmp ne i8 %58, 0
  %60 = xor i1 %59, true
  %61 = xor i1 %60, true
  %62 = zext i1 %61 to i32
  %63 = shl i32 %54, %62
  %64 = load i32, ptr %4, align 4, !tbaa !44
  %65 = sext i32 %64 to i64
  %66 = getelementptr inbounds [409 x i8], ptr @ff_dv_vlc_run, i64 0, i64 %65
  %67 = load i8, ptr %66, align 1, !tbaa !66
  %68 = zext i8 %67 to i64
  %69 = getelementptr inbounds nuw [64 x [512 x %struct.dv_vlc_pair]], ptr @dv_vlc_map, i64 0, i64 %68
  %70 = load i32, ptr %4, align 4, !tbaa !44
  %71 = sext i32 %70 to i64
  %72 = getelementptr inbounds [409 x i8], ptr @ff_dv_vlc_level, i64 0, i64 %71
  %73 = load i8, ptr %72, align 1, !tbaa !66
  %74 = zext i8 %73 to i64
  %75 = getelementptr inbounds nuw [512 x %struct.dv_vlc_pair], ptr %69, i64 0, i64 %74
  %76 = getelementptr inbounds nuw %struct.dv_vlc_pair, ptr %75, i32 0, i32 0
  store i32 %63, ptr %76, align 8, !tbaa !69
  %77 = load i32, ptr %4, align 4, !tbaa !44
  %78 = sext i32 %77 to i64
  %79 = getelementptr inbounds [409 x i8], ptr @ff_dv_vlc_len, i64 0, i64 %78
  %80 = load i8, ptr %79, align 1, !tbaa !66
  %81 = zext i8 %80 to i32
  %82 = load i32, ptr %4, align 4, !tbaa !44
  %83 = sext i32 %82 to i64
  %84 = getelementptr inbounds [409 x i8], ptr @ff_dv_vlc_level, i64 0, i64 %83
  %85 = load i8, ptr %84, align 1, !tbaa !66
  %86 = icmp ne i8 %85, 0
  %87 = xor i1 %86, true
  %88 = xor i1 %87, true
  %89 = zext i1 %88 to i32
  %90 = add nsw i32 %81, %89
  %91 = load i32, ptr %4, align 4, !tbaa !44
  %92 = sext i32 %91 to i64
  %93 = getelementptr inbounds [409 x i8], ptr @ff_dv_vlc_run, i64 0, i64 %92
  %94 = load i8, ptr %93, align 1, !tbaa !66
  %95 = zext i8 %94 to i64
  %96 = getelementptr inbounds nuw [64 x [512 x %struct.dv_vlc_pair]], ptr @dv_vlc_map, i64 0, i64 %95
  %97 = load i32, ptr %4, align 4, !tbaa !44
  %98 = sext i32 %97 to i64
  %99 = getelementptr inbounds [409 x i8], ptr @ff_dv_vlc_level, i64 0, i64 %98
  %100 = load i8, ptr %99, align 1, !tbaa !66
  %101 = zext i8 %100 to i64
  %102 = getelementptr inbounds nuw [512 x %struct.dv_vlc_pair], ptr %96, i64 0, i64 %101
  %103 = getelementptr inbounds nuw %struct.dv_vlc_pair, ptr %102, i32 0, i32 1
  store i32 %90, ptr %103, align 4, !tbaa !67
  store i32 0, ptr %5, align 4
  br label %104

104:                                              ; preds = %53, %52, %35
  call void @llvm.lifetime.end.p0(i64 4, ptr %6) #9
  %105 = load i32, ptr %5, align 4
  switch i32 %105, label %223 [
    i32 0, label %106
    i32 4, label %107
  ]

106:                                              ; preds = %104
  br label %107

107:                                              ; preds = %106, %104
  %108 = load i32, ptr %4, align 4, !tbaa !44
  %109 = add nsw i32 %108, 1
  store i32 %109, ptr %4, align 4, !tbaa !44
  br label %7, !llvm.loop !70

110:                                              ; preds = %10
  store i32 0, ptr %2, align 4, !tbaa !44
  br label %111

111:                                              ; preds = %219, %110
  %112 = load i32, ptr %2, align 4, !tbaa !44
  %113 = icmp slt i32 %112, 64
  br i1 %113, label %114, label %222

114:                                              ; preds = %111
  store i32 1, ptr %3, align 4, !tbaa !44
  br label %115

115:                                              ; preds = %215, %114
  %116 = load i32, ptr %3, align 4, !tbaa !44
  %117 = icmp slt i32 %116, 256
  br i1 %117, label %118, label %218

118:                                              ; preds = %115
  %119 = load i32, ptr %2, align 4, !tbaa !44
  %120 = sext i32 %119 to i64
  %121 = getelementptr inbounds [64 x [512 x %struct.dv_vlc_pair]], ptr @dv_vlc_map, i64 0, i64 %120
  %122 = load i32, ptr %3, align 4, !tbaa !44
  %123 = sext i32 %122 to i64
  %124 = getelementptr inbounds [512 x %struct.dv_vlc_pair], ptr %121, i64 0, i64 %123
  %125 = getelementptr inbounds nuw %struct.dv_vlc_pair, ptr %124, i32 0, i32 1
  %126 = load i32, ptr %125, align 4, !tbaa !67
  %127 = icmp eq i32 %126, 0
  br i1 %127, label %128, label %175

128:                                              ; preds = %118
  %129 = load i32, ptr %3, align 4, !tbaa !44
  %130 = sext i32 %129 to i64
  %131 = getelementptr inbounds [512 x %struct.dv_vlc_pair], ptr @dv_vlc_map, i64 0, i64 %130
  %132 = getelementptr inbounds nuw %struct.dv_vlc_pair, ptr %131, i32 0, i32 0
  %133 = load i32, ptr %132, align 8, !tbaa !69
  %134 = load i32, ptr %2, align 4, !tbaa !44
  %135 = sub nsw i32 %134, 1
  %136 = sext i32 %135 to i64
  %137 = getelementptr inbounds [64 x [512 x %struct.dv_vlc_pair]], ptr @dv_vlc_map, i64 0, i64 %136
  %138 = getelementptr inbounds [512 x %struct.dv_vlc_pair], ptr %137, i64 0, i64 0
  %139 = getelementptr inbounds nuw %struct.dv_vlc_pair, ptr %138, i32 0, i32 0
  %140 = load i32, ptr %139, align 16, !tbaa !69
  %141 = load i32, ptr %3, align 4, !tbaa !44
  %142 = sext i32 %141 to i64
  %143 = getelementptr inbounds [512 x %struct.dv_vlc_pair], ptr @dv_vlc_map, i64 0, i64 %142
  %144 = getelementptr inbounds nuw %struct.dv_vlc_pair, ptr %143, i32 0, i32 1
  %145 = load i32, ptr %144, align 4, !tbaa !67
  %146 = shl i32 %140, %145
  %147 = or i32 %133, %146
  %148 = load i32, ptr %2, align 4, !tbaa !44
  %149 = sext i32 %148 to i64
  %150 = getelementptr inbounds [64 x [512 x %struct.dv_vlc_pair]], ptr @dv_vlc_map, i64 0, i64 %149
  %151 = load i32, ptr %3, align 4, !tbaa !44
  %152 = sext i32 %151 to i64
  %153 = getelementptr inbounds [512 x %struct.dv_vlc_pair], ptr %150, i64 0, i64 %152
  %154 = getelementptr inbounds nuw %struct.dv_vlc_pair, ptr %153, i32 0, i32 0
  store i32 %147, ptr %154, align 8, !tbaa !69
  %155 = load i32, ptr %2, align 4, !tbaa !44
  %156 = sub nsw i32 %155, 1
  %157 = sext i32 %156 to i64
  %158 = getelementptr inbounds [64 x [512 x %struct.dv_vlc_pair]], ptr @dv_vlc_map, i64 0, i64 %157
  %159 = getelementptr inbounds [512 x %struct.dv_vlc_pair], ptr %158, i64 0, i64 0
  %160 = getelementptr inbounds nuw %struct.dv_vlc_pair, ptr %159, i32 0, i32 1
  %161 = load i32, ptr %160, align 4, !tbaa !67
  %162 = load i32, ptr %3, align 4, !tbaa !44
  %163 = sext i32 %162 to i64
  %164 = getelementptr inbounds [512 x %struct.dv_vlc_pair], ptr @dv_vlc_map, i64 0, i64 %163
  %165 = getelementptr inbounds nuw %struct.dv_vlc_pair, ptr %164, i32 0, i32 1
  %166 = load i32, ptr %165, align 4, !tbaa !67
  %167 = add i32 %161, %166
  %168 = load i32, ptr %2, align 4, !tbaa !44
  %169 = sext i32 %168 to i64
  %170 = getelementptr inbounds [64 x [512 x %struct.dv_vlc_pair]], ptr @dv_vlc_map, i64 0, i64 %169
  %171 = load i32, ptr %3, align 4, !tbaa !44
  %172 = sext i32 %171 to i64
  %173 = getelementptr inbounds [512 x %struct.dv_vlc_pair], ptr %170, i64 0, i64 %172
  %174 = getelementptr inbounds nuw %struct.dv_vlc_pair, ptr %173, i32 0, i32 1
  store i32 %167, ptr %174, align 4, !tbaa !67
  br label %175

175:                                              ; preds = %128, %118
  %176 = load i32, ptr %2, align 4, !tbaa !44
  %177 = sext i32 %176 to i64
  %178 = getelementptr inbounds [64 x [512 x %struct.dv_vlc_pair]], ptr @dv_vlc_map, i64 0, i64 %177
  %179 = load i32, ptr %3, align 4, !tbaa !44
  %180 = sext i32 %179 to i64
  %181 = getelementptr inbounds [512 x %struct.dv_vlc_pair], ptr %178, i64 0, i64 %180
  %182 = getelementptr inbounds nuw %struct.dv_vlc_pair, ptr %181, i32 0, i32 0
  %183 = load i32, ptr %182, align 8, !tbaa !69
  %184 = or i32 %183, 1
  %185 = load i32, ptr %2, align 4, !tbaa !44
  %186 = sext i32 %185 to i64
  %187 = getelementptr inbounds [64 x [512 x %struct.dv_vlc_pair]], ptr @dv_vlc_map, i64 0, i64 %186
  %188 = load i32, ptr %3, align 4, !tbaa !44
  %189 = sub nsw i32 0, %188
  %190 = trunc i32 %189 to i16
  %191 = zext i16 %190 to i32
  %192 = and i32 %191, 511
  %193 = sext i32 %192 to i64
  %194 = getelementptr inbounds [512 x %struct.dv_vlc_pair], ptr %187, i64 0, i64 %193
  %195 = getelementptr inbounds nuw %struct.dv_vlc_pair, ptr %194, i32 0, i32 0
  store i32 %184, ptr %195, align 8, !tbaa !69
  %196 = load i32, ptr %2, align 4, !tbaa !44
  %197 = sext i32 %196 to i64
  %198 = getelementptr inbounds [64 x [512 x %struct.dv_vlc_pair]], ptr @dv_vlc_map, i64 0, i64 %197
  %199 = load i32, ptr %3, align 4, !tbaa !44
  %200 = sext i32 %199 to i64
  %201 = getelementptr inbounds [512 x %struct.dv_vlc_pair], ptr %198, i64 0, i64 %200
  %202 = getelementptr inbounds nuw %struct.dv_vlc_pair, ptr %201, i32 0, i32 1
  %203 = load i32, ptr %202, align 4, !tbaa !67
  %204 = load i32, ptr %2, align 4, !tbaa !44
  %205 = sext i32 %204 to i64
  %206 = getelementptr inbounds [64 x [512 x %struct.dv_vlc_pair]], ptr @dv_vlc_map, i64 0, i64 %205
  %207 = load i32, ptr %3, align 4, !tbaa !44
  %208 = sub nsw i32 0, %207
  %209 = trunc i32 %208 to i16
  %210 = zext i16 %209 to i32
  %211 = and i32 %210, 511
  %212 = sext i32 %211 to i64
  %213 = getelementptr inbounds [512 x %struct.dv_vlc_pair], ptr %206, i64 0, i64 %212
  %214 = getelementptr inbounds nuw %struct.dv_vlc_pair, ptr %213, i32 0, i32 1
  store i32 %203, ptr %214, align 4, !tbaa !67
  br label %215

215:                                              ; preds = %175
  %216 = load i32, ptr %3, align 4, !tbaa !44
  %217 = add nsw i32 %216, 1
  store i32 %217, ptr %3, align 4, !tbaa !44
  br label %115, !llvm.loop !72

218:                                              ; preds = %115
  br label %219

219:                                              ; preds = %218
  %220 = load i32, ptr %2, align 4, !tbaa !44
  %221 = add nsw i32 %220, 1
  store i32 %221, ptr %2, align 4, !tbaa !44
  br label %111, !llvm.loop !73

222:                                              ; preds = %111
  call void @llvm.lifetime.end.p0(i64 4, ptr %3) #9
  call void @llvm.lifetime.end.p0(i64 4, ptr %2) #9
  call void @llvm.lifetime.end.p0(i64 4, ptr %1) #9
  ret void

223:                                              ; preds = %104
  unreachable
}