; Function Attrs: cold nofree norecurse nosync nounwind optsize memory(readwrite, argmem: none, inaccessiblemem: none) uwtable
define internal void @dv_vlc_map_tableinit() #5 {
  br label %1

1:                                                ; preds = %0, %26
  %indvars.iv = phi i64 [ 0, %0 ], [ %indvars.iv.next, %26 ]
  %.045 = phi i32 [ 0, %0 ], [ %8, %26 ]
  %2 = getelementptr inbounds nuw [409 x i8], ptr @ff_dv_vlc_len, i64 0, i64 %indvars.iv
  %3 = load i8, ptr %2, align 1, !tbaa !60
  %4 = zext i8 %3 to i32
  %5 = sub nsw i32 32, %4
  %6 = lshr i32 %.045, %5
  %7 = shl nuw i32 1, %5
  %8 = add i32 %7, %.045
  %9 = getelementptr inbounds nuw [409 x i8], ptr @ff_dv_vlc_run, i64 0, i64 %indvars.iv
  %10 = load i8, ptr %9, align 1, !tbaa !60
  %11 = icmp ugt i8 %10, 63
  br i1 %11, label %26, label %12

12:                                               ; preds = %1
  %13 = zext nneg i8 %10 to i64
  %14 = getelementptr inbounds nuw [409 x i8], ptr @ff_dv_vlc_level, i64 0, i64 %indvars.iv
  %15 = load i8, ptr %14, align 1, !tbaa !60
  %16 = zext i8 %15 to i64
  %17 = getelementptr inbounds nuw [64 x [512 x %struct.dv_vlc_pair]], ptr @dv_vlc_map, i64 0, i64 %13, i64 %16
  %18 = getelementptr inbounds nuw i8, ptr %17, i64 4
  %19 = load i32, ptr %18, align 4, !tbaa !78
  %.not = icmp eq i32 %19, 0
  br i1 %.not, label %20, label %26

20:                                               ; preds = %12
  %21 = icmp ne i8 %15, 0
  %22 = zext i1 %21 to i32
  %23 = shl i32 %6, %22
  store i32 %23, ptr %17, align 8, !tbaa !80
  %24 = add nuw nsw i32 %22, %4
  %25 = getelementptr inbounds nuw [64 x [512 x %struct.dv_vlc_pair]], ptr @dv_vlc_map, i64 0, i64 %13, i64 %16, i32 1
  store i32 %24, ptr %25, align 4, !tbaa !78
  br label %26

26:                                               ; preds = %12, %1, %20
  %indvars.iv.next = add nuw nsw i64 %indvars.iv, 1
  %exitcond.not = icmp eq i64 %indvars.iv.next, 409
  br i1 %exitcond.not, label %.preheader, label %1, !llvm.loop !81

.preheader:                                       ; preds = %26, %53
  %indvars.iv53 = phi i64 [ %indvars.iv.next54, %53 ], [ 0, %26 ]
  %27 = add nsw i64 %indvars.iv53, -1
  %28 = getelementptr inbounds [64 x [512 x %struct.dv_vlc_pair]], ptr @dv_vlc_map, i64 0, i64 %27
  %29 = getelementptr inbounds nuw i8, ptr %28, i64 4
  br label %30

30:                                               ; preds = %.preheader, %45
  %indvars.iv49 = phi i64 [ 1, %.preheader ], [ %indvars.iv.next50, %45 ]
  %31 = getelementptr inbounds nuw [64 x [512 x %struct.dv_vlc_pair]], ptr @dv_vlc_map, i64 0, i64 %indvars.iv53, i64 %indvars.iv49
  %32 = getelementptr inbounds nuw i8, ptr %31, i64 4
  %33 = load i32, ptr %32, align 4, !tbaa !78
  %34 = icmp eq i32 %33, 0
  br i1 %34, label %35, label %._crit_edge

._crit_edge:                                      ; preds = %30
  %.pre = load i32, ptr %31, align 8, !tbaa !80
  br label %45

35:                                               ; preds = %30
  %36 = getelementptr inbounds nuw [512 x %struct.dv_vlc_pair], ptr @dv_vlc_map, i64 0, i64 %indvars.iv49
  %37 = load i32, ptr %36, align 8, !tbaa !80
  %38 = load i32, ptr %28, align 16, !tbaa !80
  %39 = getelementptr inbounds nuw i8, ptr %36, i64 4
  %40 = load i32, ptr %39, align 4, !tbaa !78
  %41 = shl i32 %38, %40
  %42 = or i32 %41, %37
  store i32 %42, ptr %31, align 8, !tbaa !80
  %43 = load i32, ptr %29, align 4, !tbaa !78
  %44 = add i32 %43, %40
  store i32 %44, ptr %32, align 4, !tbaa !78
  br label %45

45:                                               ; preds = %._crit_edge, %35
  %46 = phi i32 [ %33, %._crit_edge ], [ %44, %35 ]
  %47 = phi i32 [ %.pre, %._crit_edge ], [ %42, %35 ]
  %48 = or i32 %47, 1
  %49 = sub nsw i64 0, %indvars.iv49
  %50 = and i64 %49, 511
  %51 = getelementptr inbounds nuw [64 x [512 x %struct.dv_vlc_pair]], ptr @dv_vlc_map, i64 0, i64 %indvars.iv53, i64 %50
  store i32 %48, ptr %51, align 8, !tbaa !80
  %52 = getelementptr inbounds nuw i8, ptr %51, i64 4
  store i32 %46, ptr %52, align 4, !tbaa !78
  %indvars.iv.next50 = add nuw nsw i64 %indvars.iv49, 1
  %exitcond52.not = icmp eq i64 %indvars.iv.next50, 256
  br i1 %exitcond52.not, label %53, label %30, !llvm.loop !82

53:                                               ; preds = %45
  %indvars.iv.next54 = add nuw nsw i64 %indvars.iv53, 1
  %exitcond56.not = icmp eq i64 %indvars.iv.next54, 64
  br i1 %exitcond56.not, label %54, label %.preheader, !llvm.loop !83

54:                                               ; preds = %53
  ret void
}